target datalayout = "e-m:e-p270:32:32-p271:32:32-p272:64:64-i64:64-i128:128-f80:128-n8:16:32:64-S128"
target triple = "x86_64-unknown-linux-gnu"

%struct.Packet = type { ptr, %union.anon.2, ptr, i32, i64, i32, i32, i32, i32, i8, i16, i16, i8 }
%union.anon.2 = type { ptr }
%struct.timeval = type { i64, i64 }

@trace_events_enabled_count = external global i32, align 4
@message_with_timestamp = external global i8, align 1
@qemu_loglevel = external global i32, align 4
@_TRACE_COLO_OLD_PACKET_CHECK_FOUND_DSTATE = external global i16, align 2
@.str.64 = private unnamed_addr constant [46 x i8] c"%d@%zu.%06zu:colo_old_packet_check_found %ld\0A\00", align 1
@.str.65 = private unnamed_addr constant [33 x i8] c"colo_old_packet_check_found %ld\0A\00", align 1

; Function Attrs: nounwind sspstrong uwtable
define internal zeroext i1 @qemu_loglevel_mask(i32 noundef %mask) #0 {
entry:
  %mask.addr = alloca i32, align 4
  store i32 %mask, ptr %mask.addr, align 4
  %0 = load i32, ptr @qemu_loglevel, align 4
  %1 = load i32, ptr %mask.addr, align 4
  %and = and i32 %0, %1
  %cmp = icmp ne i32 %and, 0
  ret i1 %cmp
}

; Function Attrs: nounwind sspstrong uwtable
define internal void @_nocheck__trace_colo_old_packet_check_found(i64 noundef %old_time) #0 {
entry:
  %old_time.addr = alloca i64, align 8
  %_now = alloca %struct.timeval, align 8
  store i64 %old_time, ptr %old_time.addr, align 8
  %0 = load i32, ptr @trace_events_enabled_count, align 4
  %tobool = icmp ne i32 %0, 0
  %lnot = xor i1 %tobool, true
  %lnot1 = xor i1 %lnot, true
  %lnot.ext = zext i1 %lnot1 to i32
  %conv = sext i32 %lnot.ext to i64
  %tobool2 = icmp ne i64 %conv, 0
  br i1 %tobool2, label %land.lhs.true, label %if.end11

land.lhs.true:                                    ; preds = %entry
  %1 = load i16, ptr @_TRACE_COLO_OLD_PACKET_CHECK_FOUND_DSTATE, align 2
  %conv3 = zext i16 %1 to i32
  %tobool4 = icmp ne i32 %conv3, 0
  br i1 %tobool4, label %land.lhs.true5, label %if.end11

land.lhs.true5:                                   ; preds = %land.lhs.true
  %call = call zeroext i1 @qemu_loglevel_mask(i32 noundef 32768)
  br i1 %call, label %if.then, label %if.end11

if.then:                                          ; preds = %land.lhs.true5
  %2 = load i8, ptr @message_with_timestamp, align 1
  %tobool7 = trunc i8 %2 to i1
  br i1 %tobool7, label %if.then8, label %if.else

if.then8:                                         ; preds = %if.then
  %call9 = call i32 @gettimeofday(ptr noundef %_now, ptr noundef null) #15
  %call10 = call i32 @qemu_get_thread_id()
  %tv_sec = getelementptr inbounds %struct.timeval, ptr %_now, i32 0, i32 0
  %3 = load i64, ptr %tv_sec, align 8
  %tv_usec = getelementptr inbounds %struct.timeval, ptr %_now, i32 0, i32 1
  %4 = load i64, ptr %tv_usec, align 8
  %5 = load i64, ptr %old_time.addr, align 8
  call void (ptr, ...) @qemu_log(ptr noundef @.str.64, i32 noundef %call10, i64 noundef %3, i64 noundef %4, i64 noundef %5)
  br label %if.end

if.else:                                          ; preds = %if.then
  %6 = load i64, ptr %old_time.addr, align 8
  call void (ptr, ...) @qemu_log(ptr noundef @.str.65, i64 noundef %6)
  br label %if.end

if.end:                                           ; preds = %if.else, %if.then8
  br label %if.end11

if.end11:                                         ; preds = %if.end, %land.lhs.true5, %land.lhs.true, %entry
  ret void
}

; Function Attrs: nounwind sspstrong uwtable
define internal void @trace_colo_old_packet_check_found(i64 noundef %old_time) #0 {
entry:
  %old_time.addr = alloca i64, align 8
  store i64 %old_time, ptr %old_time.addr, align 8
  %0 = load i64, ptr %old_time.addr, align 8
  call void @_nocheck__trace_colo_old_packet_check_found(i64 noundef %0)
  ret void
}

; Function Attrs: nounwind sspstrong uwtable
define internal i64 @qemu_clock_get_ms(i32 noundef %type) #0 {
entry:
  %type.addr = alloca i32, align 4
  store i32 %type, ptr %type.addr, align 4
  %0 = load i32, ptr %type.addr, align 4
  %call = call i64 @qemu_clock_get_ns(i32 noundef %0)
  %div = sdiv i64 %call, 1000000
  ret i64 %div
}

; Function Attrs: nounwind sspstrong uwtable
define internal i32 @colo_old_packet_check_one(ptr noundef %pkt, ptr noundef %check_time) #0 {
entry:
  %retval = alloca i32, align 4
  %pkt.addr = alloca ptr, align 8
  %check_time.addr = alloca ptr, align 8
  %now = alloca i64, align 8
  store ptr %pkt, ptr %pkt.addr, align 8
  store ptr %check_time, ptr %check_time.addr, align 8
  %call = call i64 @qemu_clock_get_ms(i32 noundef 2)
  store i64 %call, ptr %now, align 8
  %0 = load i64, ptr %now, align 8
  %1 = load ptr, ptr %pkt.addr, align 8
  %creation_ms = getelementptr inbounds %struct.Packet, ptr %1, i32 0, i32 4
  %2 = load i64, ptr %creation_ms, align 8
  %sub = sub i64 %0, %2
  %3 = load ptr, ptr %check_time.addr, align 8
  %4 = load i64, ptr %3, align 8
  %cmp = icmp sgt i64 %sub, %4
  br i1 %cmp, label %if.then, label %if.else

if.then:                                          ; preds = %entry
  %5 = load ptr, ptr %pkt.addr, align 8
  %creation_ms1 = getelementptr inbounds %struct.Packet, ptr %5, i32 0, i32 4
  %6 = load i64, ptr %creation_ms1, align 8
  call void @trace_colo_old_packet_check_found(i64 noundef %6)
  store i32 0, ptr %retval, align 4
  br label %return

if.else:                                          ; preds = %entry
  store i32 1, ptr %retval, align 4
  br label %return

return:                                           ; preds = %if.else, %if.then
  %7 = load i32, ptr %retval, align 4
  ret i32 %7
}