; Function Attrs: nounwind sspstrong uwtable
define internal range(i32 0, 2) i32 @colo_old_packet_check_one(ptr noundef readonly captures(none) %pkt, ptr noundef readonly captures(none) %check_time) #0 {
entry:
  %_now.i.i = alloca %struct.timeval, align 8
  %call.i = tail call i64 @qemu_clock_get_ns(i32 noundef 2) #16
  %div.i = sdiv i64 %call.i, 1000000
  %creation_ms = getelementptr inbounds nuw i8, ptr %pkt, i64 32
  %0 = load i64, ptr %creation_ms, align 8
  %sub = sub i64 %div.i, %0
  %1 = load i64, ptr %check_time, align 8
  %cmp = icmp sgt i64 %sub, %1
  br i1 %cmp, label %if.then, label %return

if.then:                                          ; preds = %entry
  call void @llvm.lifetime.start.p0(i64 16, ptr nonnull %_now.i.i)
  %2 = load i32, ptr @trace_events_enabled_count, align 4
  %tobool.i.i = icmp ne i32 %2, 0
  %3 = load i16, ptr @_TRACE_COLO_OLD_PACKET_CHECK_FOUND_DSTATE, align 2
  %tobool4.i.i = icmp ne i16 %3, 0
  %or.cond.i.i = select i1 %tobool.i.i, i1 %tobool4.i.i, i1 false
  br i1 %or.cond.i.i, label %land.lhs.true5.i.i, label %trace_colo_old_packet_check_found.exit

land.lhs.true5.i.i:                               ; preds = %if.then
  %4 = load i32, ptr @qemu_loglevel, align 4
  %and.i.i.i = and i32 %4, 32768
  %cmp.i.not.i.i = icmp eq i32 %and.i.i.i, 0
  br i1 %cmp.i.not.i.i, label %trace_colo_old_packet_check_found.exit, label %if.then.i.i

if.then.i.i:                                      ; preds = %land.lhs.true5.i.i
  %5 = load i8, ptr @message_with_timestamp, align 1
  %tobool7.i.i = trunc i8 %5 to i1
  br i1 %tobool7.i.i, label %if.then8.i.i, label %if.else.i.i

if.then8.i.i:                                     ; preds = %if.then.i.i
  %call9.i.i = call i32 @gettimeofday(ptr noundef nonnull %_now.i.i, ptr noundef null) #16
  %call10.i.i = tail call i32 @qemu_get_thread_id() #16
  %6 = load i64, ptr %_now.i.i, align 8
  %tv_usec.i.i = getelementptr inbounds nuw i8, ptr %_now.i.i, i64 8
  %7 = load i64, ptr %tv_usec.i.i, align 8
  tail call void (ptr, ...) @qemu_log(ptr noundef nonnull @.str.64, i32 noundef %call10.i.i, i64 noundef %6, i64 noundef %7, i64 noundef %0) #16
  br label %trace_colo_old_packet_check_found.exit

if.else.i.i:                                      ; preds = %if.then.i.i
  tail call void (ptr, ...) @qemu_log(ptr noundef nonnull @.str.65, i64 noundef %0) #16
  br label %trace_colo_old_packet_check_found.exit

trace_colo_old_packet_check_found.exit:           ; preds = %if.then, %land.lhs.true5.i.i, %if.then8.i.i, %if.else.i.i
  call void @llvm.lifetime.end.p0(i64 16, ptr nonnull %_now.i.i)
  br label %return

return:                                           ; preds = %entry, %trace_colo_old_packet_check_found.exit
  %retval.0 = phi i32 [ 0, %trace_colo_old_packet_check_found.exit ], [ 1, %entry ]
  ret i32 %retval.0
}